target datalayout = "e-m:e-p270:32:32-p271:32:32-p272:64:64-i64:64-i128:128-f80:128-n8:16:32:64-S128"
target triple = "x86_64-pc-linux-gnu"

; Function Attrs: nounwind uwtable
define dso_local ptr @ldbRedisProtocolToHuman_Status(ptr noundef %0, ptr noundef %1) #0 {
  %3 = alloca ptr, align 8
  %4 = alloca ptr, align 8
  %5 = alloca ptr, align 8
  store ptr %0, ptr %3, align 8, !tbaa !100
  store ptr %1, ptr %4, align 8, !tbaa !16
  call void @llvm.lifetime.start.p0(i64 8, ptr %5) #14
  %6 = load ptr, ptr %4, align 8, !tbaa !16
  %7 = getelementptr inbounds i8, ptr %6, i64 1
  %8 = call ptr @strchr(ptr noundef %7, i32 noundef 13) #13
  store ptr %8, ptr %5, align 8, !tbaa !16
  %9 = load ptr, ptr %3, align 8, !tbaa !100
  %10 = load ptr, ptr %9, align 8, !tbaa !16
  %11 = load ptr, ptr %4, align 8, !tbaa !16
  %12 = load ptr, ptr %5, align 8, !tbaa !16
  %13 = load ptr, ptr %4, align 8, !tbaa !16
  %14 = ptrtoint ptr %12 to i64
  %15 = ptrtoint ptr %13 to i64
  %16 = sub i64 %14, %15
  %17 = call ptr @sdscatrepr(ptr noundef %10, ptr noundef %11, i64 noundef %16)
  %18 = load ptr, ptr %3, align 8, !tbaa !100
  store ptr %17, ptr %18, align 8, !tbaa !16
  %19 = load ptr, ptr %5, align 8, !tbaa !16
  %20 = getelementptr inbounds i8, ptr %19, i64 2
  call void @llvm.lifetime.end.p0(i64 8, ptr %5) #14
  ret ptr %20
}