; Function Attrs: nounwind uwtable
define dso_local nonnull ptr @ldbRedisProtocolToHuman_Status(ptr noundef captures(none) %0, ptr noundef %1) local_unnamed_addr #0 {
  %3 = getelementptr inbounds nuw i8, ptr %1, i64 1
  %4 = tail call ptr @strchr(ptr noundef nonnull dereferenceable(1) %3, i32 noundef 13) #18
  %5 = load ptr, ptr %0, align 8, !tbaa !92
  %6 = ptrtoint ptr %4 to i64
  %7 = ptrtoint ptr %1 to i64
  %8 = sub i64 %6, %7
  %9 = tail call ptr @sdscatrepr(ptr noundef %5, ptr noundef %1, i64 noundef %8) #19
  store ptr %9, ptr %0, align 8, !tbaa !92
  %10 = getelementptr inbounds nuw i8, ptr %4, i64 2
  ret ptr %10
}